target datalayout = "e-m:e-p270:32:32-p271:32:32-p272:64:64-i64:64-i128:128-f80:128-n8:16:32:64-S128"
target triple = "x86_64-pc-linux-gnu"

%"class.absl::lts_20240722::log_internal::Voidify" = type { i8 }
%"class.absl::lts_20240722::log_internal::LogMessage" = type { %"class.absl::lts_20240722::base_internal::ErrnoSaver", %"class.std::unique_ptr" }
%"class.absl::lts_20240722::base_internal::ErrnoSaver" = type { i32 }
%"class.std::unique_ptr" = type { %"struct.std::__uniq_ptr_data" }
%"struct.std::__uniq_ptr_data" = type { %"class.std::__uniq_ptr_impl" }
%"class.std::__uniq_ptr_impl" = type { %"class.std::tuple" }
%"class.std::tuple" = type { %"struct.std::_Tuple_impl" }
%"struct.std::_Tuple_impl" = type { %"struct.std::_Head_base.1" }
%"struct.std::_Head_base.1" = type { ptr }
%struct.alts_frame_protector = type { %struct.tsi_frame_protector, ptr, ptr, ptr, ptr, ptr, ptr, i64, i64, i64, i64, i64, i64 }
%struct.tsi_frame_protector = type { ptr }
%"class.std::basic_string_view" = type { i64, ptr }

@.str = private unnamed_addr constant [145 x i8] c"generated/home/dtcxzyw/WorkSpace/Projects/compilers/llvm-opt-benchmark/bench/grpc/grpc/src/core/tsi/alts/frame_protector/alts_frame_protector.cc\00", align 1
@.str.3 = private unnamed_addr constant [45 x i8] c"Invalid nullptr arguments to alts_protect().\00", align 1

; Function Attrs: noinline noreturn nounwind uwtable
define linkonce_odr hidden void @__clang_call_terminate(ptr noundef %0) #15 comdat {
  %2 = call ptr @__cxa_begin_catch(ptr %0) #3
  call void @_ZSt9terminatev() #20
  unreachable
}

; Function Attrs: mustprogress nounwind uwtable
define linkonce_odr noundef i64 @_ZNSt11char_traitsIcE6lengthEPKc(ptr noundef %0) #6 comdat align 2 {
  %2 = alloca ptr, align 8
  store ptr %0, ptr %2, align 8, !tbaa !3
  %3 = load ptr, ptr %2, align 8, !tbaa !3
  %4 = call i64 @strlen(ptr noundef %3) #3
  ret i64 %4
}

; Function Attrs: mustprogress nounwind uwtable
define linkonce_odr void @_ZNSt17basic_string_viewIcSt11char_traitsIcEEC2EPKc(ptr noundef nonnull align 8 dereferenceable(16) %0, ptr noundef nonnull %1) unnamed_addr #6 comdat align 2 personality ptr @__gxx_personality_v0 {
  %3 = alloca ptr, align 8
  %4 = alloca ptr, align 8
  store ptr %0, ptr %3, align 8, !tbaa !111
  store ptr %1, ptr %4, align 8, !tbaa !3
  %5 = load ptr, ptr %3, align 8
  %6 = getelementptr inbounds nuw %"class.std::basic_string_view", ptr %5, i32 0, i32 0
  %7 = load ptr, ptr %4, align 8, !tbaa !3
  %8 = invoke noundef i64 @_ZNSt11char_traitsIcE6lengthEPKc(ptr noundef %7)
          to label %9 unwind label %12

9:                                                ; preds = %2
  store i64 %8, ptr %6, align 8, !tbaa !113
  %10 = getelementptr inbounds nuw %"class.std::basic_string_view", ptr %5, i32 0, i32 1
  %11 = load ptr, ptr %4, align 8, !tbaa !3
  store ptr %11, ptr %10, align 8, !tbaa !115
  ret void

12:                                               ; preds = %2
  %13 = landingpad { ptr, i32 }
          catch ptr null
  %14 = extractvalue { ptr, i32 } %13, 0
  call void @__clang_call_terminate(ptr %14) #20
  unreachable
}

; Function Attrs: inlinehint mustprogress nounwind uwtable
define linkonce_odr noundef nonnull align 8 dereferenceable(8) ptr @_ZSt3minImERKT_S2_S2_(ptr noundef nonnull align 8 dereferenceable(8) %0, ptr noundef nonnull align 8 dereferenceable(8) %1) #10 comdat {
  %3 = alloca ptr, align 8
  %4 = alloca ptr, align 8
  %5 = alloca ptr, align 8
  store ptr %0, ptr %4, align 8, !tbaa !12
  store ptr %1, ptr %5, align 8, !tbaa !12
  %6 = load ptr, ptr %5, align 8, !tbaa !12
  %7 = load i64, ptr %6, align 8, !tbaa !8
  %8 = load ptr, ptr %4, align 8, !tbaa !12
  %9 = load i64, ptr %8, align 8, !tbaa !8
  %10 = icmp ult i64 %7, %9
  br i1 %10, label %11, label %13

11:                                               ; preds = %2
  %12 = load ptr, ptr %5, align 8, !tbaa !12
  store ptr %12, ptr %3, align 8
  br label %15

13:                                               ; preds = %2
  %14 = load ptr, ptr %4, align 8, !tbaa !12
  store ptr %14, ptr %3, align 8
  br label %15

15:                                               ; preds = %13, %11
  %16 = load ptr, ptr %3, align 8
  ret ptr %16
}

; Function Attrs: mustprogress nounwind uwtable
define internal noundef i64 @_ZL27max_encrypted_payload_bytesP20alts_frame_protector(ptr noundef %0) #6 {
  %2 = alloca ptr, align 8
  store ptr %0, ptr %2, align 8, !tbaa !17
  %3 = load ptr, ptr %2, align 8, !tbaa !17
  %4 = getelementptr inbounds nuw %struct.alts_frame_protector, ptr %3, i32 0, i32 9
  %5 = load i64, ptr %4, align 8, !tbaa !23
  %6 = sub i64 %5, 8
  ret i64 %6
}

; Function Attrs: mustprogress nounwind uwtable
define linkonce_odr void @_ZNKO4absl12lts_2024072212log_internal7VoidifyaaINS1_10LogMessageEEEvRKT_(ptr noundef nonnull align 1 dereferenceable(1) %0, ptr noundef nonnull align 8 dereferenceable(16) %1) #6 comdat align 2 {
  %3 = alloca ptr, align 8
  %4 = alloca ptr, align 8
  store ptr %0, ptr %3, align 8, !tbaa !42
  store ptr %1, ptr %4, align 8, !tbaa !44
  ret void
}

; Function Attrs: mustprogress uwtable
define linkonce_odr noundef nonnull align 8 dereferenceable(16) ptr @_ZN4absl12lts_2024072212log_internal10LogMessagelsILi45EEERS2_RAT__Kc(ptr noundef nonnull align 8 dereferenceable(16) %0, ptr noundef nonnull align 1 dereferenceable(45) %1) #4 comdat align 2 {
  %3 = alloca ptr, align 8
  %4 = alloca ptr, align 8
  %5 = alloca %"class.std::basic_string_view", align 8
  store ptr %0, ptr %3, align 8, !tbaa !44
  store ptr %1, ptr %4, align 8, !tbaa !3
  %6 = load ptr, ptr %3, align 8
  %7 = load ptr, ptr %4, align 8, !tbaa !3
  %8 = getelementptr inbounds [45 x i8], ptr %7, i64 0, i64 0
  call void @_ZNSt17basic_string_viewIcSt11char_traitsIcEEC2EPKc(ptr noundef nonnull align 8 dereferenceable(16) %5, ptr noundef %8) #3
  %9 = getelementptr inbounds nuw { i64, ptr }, ptr %5, i32 0, i32 0
  %10 = load i64, ptr %9, align 8
  %11 = getelementptr inbounds nuw { i64, ptr }, ptr %5, i32 0, i32 1
  %12 = load ptr, ptr %11, align 8
  call void @_ZN4absl12lts_2024072212log_internal10LogMessage19CopyToEncodedBufferILNS2_10StringTypeE0EEEvSt17basic_string_viewIcSt11char_traitsIcEE(ptr noundef nonnull align 8 dereferenceable(16) %6, i64 %10, ptr %12)
  ret ptr %6
}

; Function Attrs: mustprogress nounwind uwtable
define linkonce_odr noundef nonnull align 8 dereferenceable(16) ptr @_ZN4absl12lts_2024072212log_internal10LogMessage14InternalStreamEv(ptr noundef nonnull align 8 dereferenceable(16) %0) #6 comdat align 2 {
  %2 = alloca ptr, align 8
  store ptr %0, ptr %2, align 8, !tbaa !44
  %3 = load ptr, ptr %2, align 8
  ret ptr %3
}

; Function Attrs: mustprogress uwtable
define internal noundef i32 @_ZL12alts_protectP19tsi_frame_protectorPKhPmPhS3_(ptr noundef %0, ptr noundef %1, ptr noundef %2, ptr noundef %3, ptr noundef %4) #4 personality ptr @__gxx_personality_v0 {
  %6 = alloca i32, align 4
  %7 = alloca ptr, align 8
  %8 = alloca ptr, align 8
  %9 = alloca ptr, align 8
  %10 = alloca ptr, align 8
  %11 = alloca ptr, align 8
  %12 = alloca %"class.absl::lts_20240722::log_internal::Voidify", align 1
  %13 = alloca %"class.absl::lts_20240722::log_internal::LogMessage", align 8
  %14 = alloca ptr, align 8
  %15 = alloca i32, align 4
  %16 = alloca ptr, align 8
  %17 = alloca i64, align 8
  %18 = alloca i64, align 8
  %19 = alloca i64, align 8
  %20 = alloca i32, align 4
  store ptr %0, ptr %7, align 8, !tbaa !40
  store ptr %1, ptr %8, align 8, !tbaa !3
  store ptr %2, ptr %9, align 8, !tbaa !12
  store ptr %3, ptr %10, align 8, !tbaa !3
  store ptr %4, ptr %11, align 8, !tbaa !12
  %21 = load ptr, ptr %7, align 8, !tbaa !40
  %22 = icmp eq ptr %21, null
  br i1 %22, label %35, label %23

23:                                               ; preds = %5
  %24 = load ptr, ptr %8, align 8, !tbaa !3
  %25 = icmp eq ptr %24, null
  br i1 %25, label %35, label %26

26:                                               ; preds = %23
  %27 = load ptr, ptr %9, align 8, !tbaa !12
  %28 = icmp eq ptr %27, null
  br i1 %28, label %35, label %29

29:                                               ; preds = %26
  %30 = load ptr, ptr %10, align 8, !tbaa !3
  %31 = icmp eq ptr %30, null
  br i1 %31, label %35, label %32

32:                                               ; preds = %29
  %33 = load ptr, ptr %11, align 8, !tbaa !12
  %34 = icmp eq ptr %33, null
  br i1 %34, label %35, label %44

35:                                               ; preds = %32, %29, %26, %23, %5
  call void @llvm.lifetime.start.p0(i64 1, ptr %12) #3
  call void @llvm.lifetime.start.p0(i64 16, ptr %13) #3
  call void @_ZN4absl12lts_2024072212log_internal10LogMessageC1EPKciNS2_8ErrorTagE(ptr noundef nonnull align 8 dereferenceable(16) %13, ptr noundef @.str, i32 noundef 150) #16
  %36 = call noundef nonnull align 8 dereferenceable(16) ptr @_ZN4absl12lts_2024072212log_internal10LogMessage14InternalStreamEv(ptr noundef nonnull align 8 dereferenceable(16) %13)
  %37 = invoke noundef nonnull align 8 dereferenceable(16) ptr @_ZN4absl12lts_2024072212log_internal10LogMessagelsILi45EEERS2_RAT__Kc(ptr noundef nonnull align 8 dereferenceable(16) %36, ptr noundef nonnull align 1 dereferenceable(45) @.str.3)
          to label %38 unwind label %40

38:                                               ; preds = %35
  invoke void @_ZNKO4absl12lts_2024072212log_internal7VoidifyaaINS1_10LogMessageEEEvRKT_(ptr noundef nonnull align 1 dereferenceable(1) %12, ptr noundef nonnull align 8 dereferenceable(16) %37)
          to label %39 unwind label %40

39:                                               ; preds = %38
  call void @_ZN4absl12lts_2024072212log_internal10LogMessageD1Ev(ptr noundef nonnull align 8 dereferenceable(16) %13) #17
  call void @llvm.lifetime.end.p0(i64 16, ptr %13) #3
  call void @llvm.lifetime.end.p0(i64 1, ptr %12) #3
  store i32 2, ptr %6, align 4
  br label %118

40:                                               ; preds = %38, %35
  %41 = landingpad { ptr, i32 }
          cleanup
  %42 = extractvalue { ptr, i32 } %41, 0
  store ptr %42, ptr %14, align 8
  %43 = extractvalue { ptr, i32 } %41, 1
  store i32 %43, ptr %15, align 4
  call void @_ZN4absl12lts_2024072212log_internal10LogMessageD1Ev(ptr noundef nonnull align 8 dereferenceable(16) %13) #17
  call void @llvm.lifetime.end.p0(i64 16, ptr %13) #3
  call void @llvm.lifetime.end.p0(i64 1, ptr %12) #3
  br label %120

44:                                               ; preds = %32
  call void @llvm.lifetime.start.p0(i64 8, ptr %16) #3
  %45 = load ptr, ptr %7, align 8, !tbaa !40
  store ptr %45, ptr %16, align 8, !tbaa !17
  %46 = load ptr, ptr %16, align 8, !tbaa !17
  %47 = getelementptr inbounds nuw %struct.alts_frame_protector, ptr %46, i32 0, i32 7
  %48 = load i64, ptr %47, align 8, !tbaa !31
  %49 = load ptr, ptr %16, align 8, !tbaa !17
  %50 = getelementptr inbounds nuw %struct.alts_frame_protector, ptr %49, i32 0, i32 11
  %51 = load i64, ptr %50, align 8, !tbaa !36
  %52 = add i64 %48, %51
  %53 = load ptr, ptr %16, align 8, !tbaa !17
  %54 = call noundef i64 @_ZL27max_encrypted_payload_bytesP20alts_frame_protector(ptr noundef %53)
  %55 = icmp ult i64 %52, %54
  br i1 %55, label %56, label %90

56:                                               ; preds = %44
  call void @llvm.lifetime.start.p0(i64 8, ptr %17) #3
  %57 = load ptr, ptr %9, align 8, !tbaa !12
  call void @llvm.lifetime.start.p0(i64 8, ptr %18) #3
  %58 = load ptr, ptr %16, align 8, !tbaa !17
  %59 = call noundef i64 @_ZL27max_encrypted_payload_bytesP20alts_frame_protector(ptr noundef %58)
  %60 = load ptr, ptr %16, align 8, !tbaa !17
  %61 = getelementptr inbounds nuw %struct.alts_frame_protector, ptr %60, i32 0, i32 7
  %62 = load i64, ptr %61, align 8, !tbaa !31
  %63 = sub i64 %59, %62
  %64 = load ptr, ptr %16, align 8, !tbaa !17
  %65 = getelementptr inbounds nuw %struct.alts_frame_protector, ptr %64, i32 0, i32 11
  %66 = load i64, ptr %65, align 8, !tbaa !36
  %67 = sub i64 %63, %66
  store i64 %67, ptr %18, align 8, !tbaa !8
  %68 = call noundef nonnull align 8 dereferenceable(8) ptr @_ZSt3minImERKT_S2_S2_(ptr noundef nonnull align 8 dereferenceable(8) %57, ptr noundef nonnull align 8 dereferenceable(8) %18)
  %69 = load i64, ptr %68, align 8, !tbaa !8
  call void @llvm.lifetime.end.p0(i64 8, ptr %18) #3
  store i64 %69, ptr %17, align 8, !tbaa !8
  %70 = load i64, ptr %17, align 8, !tbaa !8
  %71 = load ptr, ptr %9, align 8, !tbaa !12
  store i64 %70, ptr %71, align 8, !tbaa !8
  %72 = load i64, ptr %17, align 8, !tbaa !8
  %73 = icmp ugt i64 %72, 0
  br i1 %73, label %74, label %89

74:                                               ; preds = %56
  %75 = load ptr, ptr %16, align 8, !tbaa !17
  %76 = getelementptr inbounds nuw %struct.alts_frame_protector, ptr %75, i32 0, i32 5
  %77 = load ptr, ptr %76, align 8, !tbaa !33
  %78 = load ptr, ptr %16, align 8, !tbaa !17
  %79 = getelementptr inbounds nuw %struct.alts_frame_protector, ptr %78, i32 0, i32 7
  %80 = load i64, ptr %79, align 8, !tbaa !31
  %81 = getelementptr inbounds nuw i8, ptr %77, i64 %80
  %82 = load ptr, ptr %8, align 8, !tbaa !3
  %83 = load i64, ptr %17, align 8, !tbaa !8
  call void @llvm.memcpy.p0.p0.i64(ptr align 1 %81, ptr align 1 %82, i64 %83, i1 false)
  %84 = load i64, ptr %17, align 8, !tbaa !8
  %85 = load ptr, ptr %16, align 8, !tbaa !17
  %86 = getelementptr inbounds nuw %struct.alts_frame_protector, ptr %85, i32 0, i32 7
  %87 = load i64, ptr %86, align 8, !tbaa !31
  %88 = add i64 %87, %84
  store i64 %88, ptr %86, align 8, !tbaa !31
  br label %89

89:                                               ; preds = %74, %56
  call void @llvm.lifetime.end.p0(i64 8, ptr %17) #3
  br label %92

90:                                               ; preds = %44
  %91 = load ptr, ptr %9, align 8, !tbaa !12
  store i64 0, ptr %91, align 8, !tbaa !8
  br label %92

92:                                               ; preds = %90, %89
  %93 = load ptr, ptr %16, align 8, !tbaa !17
  %94 = call noundef i64 @_ZL27max_encrypted_payload_bytesP20alts_frame_protector(ptr noundef %93)
  %95 = load ptr, ptr %16, align 8, !tbaa !17
  %96 = getelementptr inbounds nuw %struct.alts_frame_protector, ptr %95, i32 0, i32 7
  %97 = load i64, ptr %96, align 8, !tbaa !31
  %98 = load ptr, ptr %16, align 8, !tbaa !17
  %99 = getelementptr inbounds nuw %struct.alts_frame_protector, ptr %98, i32 0, i32 11
  %100 = load i64, ptr %99, align 8, !tbaa !36
  %101 = add i64 %97, %100
  %102 = icmp eq i64 %94, %101
  br i1 %102, label %110, label %103

103:                                              ; preds = %92
  %104 = load ptr, ptr %16, align 8, !tbaa !17
  %105 = call noundef i64 @_ZL27max_encrypted_payload_bytesP20alts_frame_protector(ptr noundef %104)
  %106 = load ptr, ptr %16, align 8, !tbaa !17
  %107 = getelementptr inbounds nuw %struct.alts_frame_protector, ptr %106, i32 0, i32 7
  %108 = load i64, ptr %107, align 8, !tbaa !31
  %109 = icmp eq i64 %105, %108
  br i1 %109, label %110, label %115

110:                                              ; preds = %103, %92
  call void @llvm.lifetime.start.p0(i64 8, ptr %19) #3
  store i64 0, ptr %19, align 8, !tbaa !8
  %111 = load ptr, ptr %7, align 8, !tbaa !40
  %112 = load ptr, ptr %10, align 8, !tbaa !3
  %113 = load ptr, ptr %11, align 8, !tbaa !12
  %114 = call noundef i32 @_ZL18alts_protect_flushP19tsi_frame_protectorPhPmS2_(ptr noundef %111, ptr noundef %112, ptr noundef %113, ptr noundef %19)
  store i32 %114, ptr %6, align 4
  store i32 1, ptr %20, align 4
  call void @llvm.lifetime.end.p0(i64 8, ptr %19) #3
  br label %117

115:                                              ; preds = %103
  %116 = load ptr, ptr %11, align 8, !tbaa !12
  store i64 0, ptr %116, align 8, !tbaa !8
  store i32 0, ptr %6, align 4
  store i32 1, ptr %20, align 4
  br label %117

117:                                              ; preds = %115, %110
  call void @llvm.lifetime.end.p0(i64 8, ptr %16) #3
  br label %118

118:                                              ; preds = %117, %39
  %119 = load i32, ptr %6, align 4
  ret i32 %119

120:                                              ; preds = %40
  %121 = load ptr, ptr %14, align 8
  %122 = load i32, ptr %15, align 4
  %123 = insertvalue { ptr, i32 } poison, ptr %121, 0
  %124 = insertvalue { ptr, i32 } %123, i32 %122, 1
  resume { ptr, i32 } %124
}