; Function Attrs: mustprogress uwtable
define internal noundef range(i32 0, 8) i32 @_ZL12alts_protectP19tsi_frame_protectorPKhPmPhS3_(ptr noundef %0, ptr noundef readonly %1, ptr noundef %2, ptr noundef %3, ptr noundef %4) #3 personality ptr @__gxx_personality_v0 {
  %6 = alloca %"class.absl::lts_20240722::log_internal::LogMessage", align 8
  %7 = alloca i64, align 8
  %8 = icmp eq ptr %0, null
  %9 = icmp eq ptr %1, null
  %or.cond = or i1 %8, %9
  %10 = icmp eq ptr %2, null
  %or.cond3 = or i1 %or.cond, %10
  %11 = icmp eq ptr %3, null
  %or.cond5 = or i1 %or.cond3, %11
  %12 = icmp eq ptr %4, null
  %or.cond7 = or i1 %or.cond5, %12
  br i1 %or.cond7, label %13, label %16

13:                                               ; preds = %5
  call void @llvm.lifetime.start.p0(i64 16, ptr nonnull %6) #15
  call void @_ZN4absl12lts_2024072212log_internal10LogMessageC1EPKciNS2_8ErrorTagE(ptr noundef nonnull align 8 dereferenceable(16) %6, ptr noundef nonnull @.str, i32 noundef 150) #16
  invoke void @_ZN4absl12lts_2024072212log_internal10LogMessage19CopyToEncodedBufferILNS2_10StringTypeE0EEEvSt17basic_string_viewIcSt11char_traitsIcEE(ptr noundef nonnull align 8 dereferenceable(16) %6, i64 44, ptr nonnull @.str.3)
          to label %_ZN4absl12lts_2024072212log_internal10LogMessagelsILi45EEERS2_RAT__Kc.exit unwind label %14

_ZN4absl12lts_2024072212log_internal10LogMessagelsILi45EEERS2_RAT__Kc.exit: ; preds = %13
  call void @_ZN4absl12lts_2024072212log_internal10LogMessageD1Ev(ptr noundef nonnull align 8 dereferenceable(16) %6) #17
  call void @llvm.lifetime.end.p0(i64 16, ptr nonnull %6) #15
  br label %45

14:                                               ; preds = %13
  %15 = landingpad { ptr, i32 }
          cleanup
  call void @_ZN4absl12lts_2024072212log_internal10LogMessageD1Ev(ptr noundef nonnull align 8 dereferenceable(16) %6) #17
  call void @llvm.lifetime.end.p0(i64 16, ptr nonnull %6) #15
  resume { ptr, i32 } %15

16:                                               ; preds = %5
  %17 = getelementptr inbounds nuw i8, ptr %0, i64 56
  %18 = load i64, ptr %17, align 8, !tbaa !43
  %19 = getelementptr inbounds nuw i8, ptr %0, i64 88
  %20 = load i64, ptr %19, align 8, !tbaa !35
  %21 = add i64 %20, %18
  %22 = getelementptr i8, ptr %0, i64 72
  %.val = load i64, ptr %22, align 8, !tbaa !24
  %23 = add i64 %.val, -8
  %24 = icmp ult i64 %21, %23
  br i1 %24, label %25, label %34

25:                                               ; preds = %16
  %26 = sub nuw i64 %23, %21
  %27 = load i64, ptr %2, align 8, !tbaa !22
  %.sroa.speculated = tail call i64 @llvm.umin.i64(i64 %26, i64 %27)
  store i64 %.sroa.speculated, ptr %2, align 8, !tbaa !22
  %.not = icmp eq i64 %.sroa.speculated, 0
  %.pre51 = load i64, ptr %17, align 8, !tbaa !43
  br i1 %.not, label %35, label %28

28:                                               ; preds = %25
  %29 = getelementptr inbounds nuw i8, ptr %0, i64 40
  %30 = load ptr, ptr %29, align 8, !tbaa !32
  %31 = getelementptr inbounds nuw i8, ptr %30, i64 %.pre51
  tail call void @llvm.memcpy.p0.p0.i64(ptr align 1 %31, ptr nonnull align 1 %1, i64 %.sroa.speculated, i1 false)
  %32 = load i64, ptr %17, align 8, !tbaa !43
  %33 = add i64 %32, %.sroa.speculated
  store i64 %33, ptr %17, align 8, !tbaa !43
  br label %35

34:                                               ; preds = %16
  store i64 0, ptr %2, align 8, !tbaa !22
  %.pre = load i64, ptr %17, align 8, !tbaa !43
  br label %35

35:                                               ; preds = %25, %28, %34
  %36 = phi i64 [ %.pre51, %25 ], [ %33, %28 ], [ %.pre, %34 ]
  %.val47 = load i64, ptr %22, align 8, !tbaa !24
  %37 = add i64 %.val47, -8
  %38 = load i64, ptr %19, align 8, !tbaa !35
  %39 = add i64 %38, %36
  %40 = icmp eq i64 %37, %39
  %41 = icmp eq i64 %37, %36
  %or.cond50 = or i1 %41, %40
  br i1 %or.cond50, label %42, label %44

42:                                               ; preds = %35
  call void @llvm.lifetime.start.p0(i64 8, ptr nonnull %7) #15
  %43 = call noundef i32 @_ZL18alts_protect_flushP19tsi_frame_protectorPhPmS2_(ptr noundef nonnull %0, ptr noundef nonnull %3, ptr noundef nonnull %4, ptr noundef nonnull %7)
  call void @llvm.lifetime.end.p0(i64 8, ptr nonnull %7) #15
  br label %45

44:                                               ; preds = %35
  store i64 0, ptr %4, align 8, !tbaa !22
  br label %45

45:                                               ; preds = %42, %44, %_ZN4absl12lts_2024072212log_internal10LogMessagelsILi45EEERS2_RAT__Kc.exit
  %.0 = phi i32 [ 2, %_ZN4absl12lts_2024072212log_internal10LogMessagelsILi45EEERS2_RAT__Kc.exit ], [ %43, %42 ], [ 0, %44 ]
  ret i32 %.0
}